target datalayout = "e-m:e-p270:32:32-p271:32:32-p272:64:64-i64:64-i128:128-f80:128-n8:16:32:64-S128"
target triple = "x86_64-pc-linux-gnu"

; Function Attrs: nounwind uwtable
define internal ptr @_testinternalcapi_optimize_cfg_impl(ptr noundef %0, ptr noundef %1, ptr noundef %2, i32 noundef %3) #0 {
  %5 = alloca ptr, align 8
  %6 = alloca ptr, align 8
  %7 = alloca ptr, align 8
  %8 = alloca i32, align 4
  store ptr %0, ptr %5, align 8, !tbaa !3
  store ptr %1, ptr %6, align 8, !tbaa !3
  store ptr %2, ptr %7, align 8, !tbaa !3
  store i32 %3, ptr %8, align 4, !tbaa !26
  %9 = load ptr, ptr %6, align 8, !tbaa !3
  %10 = load ptr, ptr %7, align 8, !tbaa !3
  %11 = load i32, ptr %8, align 4, !tbaa !26
  %12 = call ptr @_PyCompile_OptimizeCfg(ptr noundef %9, ptr noundef %10, i32 noundef %11)
  ret ptr %12
}

; Function Attrs: nounwind uwtable
define internal ptr @_testinternalcapi_optimize_cfg(ptr noundef %0, ptr noundef %1, i64 noundef %2, ptr noundef %3) #0 {
  %5 = alloca ptr, align 8
  %6 = alloca ptr, align 8
  %7 = alloca i64, align 8
  %8 = alloca ptr, align 8
  %9 = alloca ptr, align 8
  %10 = alloca [3 x ptr], align 16
  %11 = alloca ptr, align 8
  %12 = alloca ptr, align 8
  %13 = alloca i32, align 4
  store ptr %0, ptr %5, align 8, !tbaa !3
  store ptr %1, ptr %6, align 8, !tbaa !48
  store i64 %2, ptr %7, align 8, !tbaa !27
  store ptr %3, ptr %8, align 8, !tbaa !3
  call void @llvm.lifetime.start.p0(i64 8, ptr %9) #10
  store ptr null, ptr %9, align 8, !tbaa !3
  call void @llvm.lifetime.start.p0(i64 24, ptr %10) #10
  call void @llvm.lifetime.start.p0(i64 8, ptr %11) #10
  call void @llvm.lifetime.start.p0(i64 8, ptr %12) #10
  call void @llvm.lifetime.start.p0(i64 4, ptr %13) #10
  %14 = load ptr, ptr %8, align 8, !tbaa !3
  %15 = icmp eq ptr %14, null
  br i1 %15, label %16, label %27

16:                                               ; preds = %4
  %17 = load i64, ptr %7, align 8, !tbaa !27
  %18 = icmp sle i64 3, %17
  br i1 %18, label %19, label %27

19:                                               ; preds = %16
  %20 = load i64, ptr %7, align 8, !tbaa !27
  %21 = icmp sle i64 %20, 3
  br i1 %21, label %22, label %27

22:                                               ; preds = %19
  %23 = load ptr, ptr %6, align 8, !tbaa !48
  %24 = icmp ne ptr %23, null
  br i1 %24, label %25, label %27

25:                                               ; preds = %22
  %26 = load ptr, ptr %6, align 8, !tbaa !48
  br label %33

27:                                               ; preds = %22, %19, %16, %4
  %28 = load ptr, ptr %6, align 8, !tbaa !48
  %29 = load i64, ptr %7, align 8, !tbaa !27
  %30 = load ptr, ptr %8, align 8, !tbaa !3
  %31 = getelementptr inbounds [3 x ptr], ptr %10, i64 0, i64 0
  %32 = call ptr @_PyArg_UnpackKeywords(ptr noundef %28, i64 noundef %29, ptr noundef null, ptr noundef %30, ptr noundef @_testinternalcapi_optimize_cfg._parser, i32 noundef 3, i32 noundef 3, i32 noundef 0, i32 noundef 0, ptr noundef %31)
  br label %33

33:                                               ; preds = %27, %25
  %34 = phi ptr [ %26, %25 ], [ %32, %27 ]
  store ptr %34, ptr %6, align 8, !tbaa !48
  %35 = load ptr, ptr %6, align 8, !tbaa !48
  %36 = icmp ne ptr %35, null
  br i1 %36, label %38, label %37

37:                                               ; preds = %33
  br label %61

38:                                               ; preds = %33
  %39 = load ptr, ptr %6, align 8, !tbaa !48
  %40 = getelementptr ptr, ptr %39, i64 0
  %41 = load ptr, ptr %40, align 8, !tbaa !3
  store ptr %41, ptr %11, align 8, !tbaa !3
  %42 = load ptr, ptr %6, align 8, !tbaa !48
  %43 = getelementptr ptr, ptr %42, i64 1
  %44 = load ptr, ptr %43, align 8, !tbaa !3
  store ptr %44, ptr %12, align 8, !tbaa !3
  %45 = load ptr, ptr %6, align 8, !tbaa !48
  %46 = getelementptr ptr, ptr %45, i64 2
  %47 = load ptr, ptr %46, align 8, !tbaa !3
  %48 = call i32 @PyLong_AsInt(ptr noundef %47)
  store i32 %48, ptr %13, align 4, !tbaa !26
  %49 = load i32, ptr %13, align 4, !tbaa !26
  %50 = icmp eq i32 %49, -1
  br i1 %50, label %51, label %55

51:                                               ; preds = %38
  %52 = call ptr @PyErr_Occurred()
  %53 = icmp ne ptr %52, null
  br i1 %53, label %54, label %55

54:                                               ; preds = %51
  br label %61

55:                                               ; preds = %51, %38
  %56 = load ptr, ptr %5, align 8, !tbaa !3
  %57 = load ptr, ptr %11, align 8, !tbaa !3
  %58 = load ptr, ptr %12, align 8, !tbaa !3
  %59 = load i32, ptr %13, align 4, !tbaa !26
  %60 = call ptr @_testinternalcapi_optimize_cfg_impl(ptr noundef %56, ptr noundef %57, ptr noundef %58, i32 noundef %59)
  store ptr %60, ptr %9, align 8, !tbaa !3
  br label %61

61:                                               ; preds = %55, %54, %37
  %62 = load ptr, ptr %9, align 8, !tbaa !3
  call void @llvm.lifetime.end.p0(i64 4, ptr %13) #10
  call void @llvm.lifetime.end.p0(i64 8, ptr %12) #10
  call void @llvm.lifetime.end.p0(i64 8, ptr %11) #10
  call void @llvm.lifetime.end.p0(i64 24, ptr %10) #10
  call void @llvm.lifetime.end.p0(i64 8, ptr %9) #10
  ret ptr %62
}