; Function Attrs: nounwind uwtable
define internal ptr @_testinternalcapi_optimize_cfg(ptr readnone captures(none) %0, ptr noundef %1, i64 noundef %2, ptr noundef %3) #0 {
  %5 = alloca [3 x ptr], align 16
  call void @llvm.lifetime.start.p0(i64 24, ptr nonnull %5) #11
  %6 = icmp eq ptr %3, null
  %7 = icmp eq i64 %2, 3
  %or.cond3 = and i1 %7, %6
  %8 = icmp ne ptr %1, null
  %or.cond5 = and i1 %8, %or.cond3
  br i1 %or.cond5, label %.thread, label %9

9:                                                ; preds = %4
  %10 = call ptr @_PyArg_UnpackKeywords(ptr noundef %1, i64 noundef %2, ptr noundef null, ptr noundef %3, ptr noundef nonnull @_testinternalcapi_optimize_cfg._parser, i32 noundef 3, i32 noundef 3, i32 noundef 0, i32 noundef 0, ptr noundef nonnull %5) #11
  %.not = icmp eq ptr %10, null
  br i1 %.not, label %22, label %.thread

.thread:                                          ; preds = %4, %9
  %11 = phi ptr [ %10, %9 ], [ %1, %4 ]
  %12 = load ptr, ptr %11, align 8, !tbaa !9
  %13 = getelementptr i8, ptr %11, i64 8
  %14 = load ptr, ptr %13, align 8, !tbaa !9
  %15 = getelementptr i8, ptr %11, i64 16
  %16 = load ptr, ptr %15, align 8, !tbaa !9
  %17 = call i32 @PyLong_AsInt(ptr noundef %16) #11
  %18 = icmp eq i32 %17, -1
  br i1 %18, label %19, label %.sink.split

19:                                               ; preds = %.thread
  %20 = call ptr @PyErr_Occurred() #11
  %.not26 = icmp eq ptr %20, null
  br i1 %.not26, label %.sink.split, label %22

.sink.split:                                      ; preds = %19, %.thread
  %.sink = phi i32 [ %17, %.thread ], [ -1, %19 ]
  %21 = call ptr @_PyCompile_OptimizeCfg(ptr noundef %12, ptr noundef %14, i32 noundef %.sink) #11
  br label %22

22:                                               ; preds = %.sink.split, %19, %9
  %.0 = phi ptr [ null, %19 ], [ null, %9 ], [ %21, %.sink.split ]
  call void @llvm.lifetime.end.p0(i64 24, ptr nonnull %5) #11
  ret ptr %.0
}